CCS PCM C Compiler, Version 5.048, 5967               22-ге-16 12:56

               Filename:   G:\learning\Micochip\Projects\CCS\LCD\main.lst

               ROM used:   513 words (6%)
                           Largest free fragment is 2048
               RAM used:   9 (2%) at main() level
                           22 (6%) worst case
               Stack used: 4 locations
               Stack size: 8

*
0000:  MOVLW  01
0001:  MOVWF  0A
0002:  GOTO   1D2
0003:  NOP
.................... #include <main.h> 
.................... #include <16F877A.h> 
.................... //////////// Standard Header file for the PIC16F877A device //////////////// 
.................... /////////////////////////////////////////////////////////////////////////// 
.................... ////        (C) Copyright 1996, 2014 Custom Computer Services          //// 
.................... //// This source code may only be used by licensed users of the CCS C  //// 
.................... //// compiler.  This source code may only be distributed to other      //// 
.................... //// licensed users of the CCS C compiler.  No other use, reproduction //// 
.................... //// or distribution is permitted without written permission.          //// 
.................... //// Derivative programs created using this software in object code    //// 
.................... //// form are not restricted in any way.                               //// 
.................... /////////////////////////////////////////////////////////////////////////// 
.................... #device PIC16F877A 
0004:  BCF    0A.0
0005:  BCF    0A.1
0006:  BCF    0A.2
0007:  ADDWF  02,F
0008:  RETLW  28
0009:  RETLW  0C
000A:  RETLW  01
000B:  RETLW  06
000C:  DATA C8,32
000D:  DATA 6C,36
000E:  DATA 6F,10
000F:  DATA A1,10
0010:  DATA 00,00
*
012E:  MOVF   0B,W
012F:  MOVWF  24
0130:  BCF    0B.7
0131:  BSF    03.5
0132:  BSF    03.6
0133:  BSF    0C.7
0134:  BSF    0C.0
0135:  NOP
0136:  NOP
0137:  BCF    03.5
0138:  BCF    03.6
0139:  BTFSC  24.7
013A:  BSF    0B.7
013B:  BSF    03.6
013C:  MOVF   0C,W
013D:  ANDLW  7F
013E:  BTFSC  03.2
013F:  GOTO   182
0140:  BCF    03.6
0141:  MOVWF  24
0142:  BSF    03.6
0143:  MOVF   0D,W
0144:  BCF    03.6
0145:  MOVWF  25
0146:  BSF    03.6
0147:  MOVF   0F,W
0148:  BCF    03.6
0149:  MOVWF  26
014A:  MOVF   24,W
014B:  MOVWF  27
014C:  CALL   107
014D:  MOVF   25,W
014E:  BSF    03.6
014F:  MOVWF  0D
0150:  BCF    03.6
0151:  MOVF   26,W
0152:  BSF    03.6
0153:  MOVWF  0F
0154:  BCF    03.6
0155:  MOVF   0B,W
0156:  MOVWF  27
0157:  BCF    0B.7
0158:  BSF    03.5
0159:  BSF    03.6
015A:  BSF    0C.7
015B:  BSF    0C.0
015C:  NOP
015D:  NOP
015E:  BCF    03.5
015F:  BCF    03.6
0160:  BTFSC  27.7
0161:  BSF    0B.7
0162:  BSF    03.6
0163:  RLF    0C,W
0164:  RLF    0E,W
0165:  ANDLW  7F
0166:  BTFSC  03.2
0167:  GOTO   182
0168:  BCF    03.6
0169:  MOVWF  24
016A:  BSF    03.6
016B:  MOVF   0D,W
016C:  BCF    03.6
016D:  MOVWF  25
016E:  BSF    03.6
016F:  MOVF   0F,W
0170:  BCF    03.6
0171:  MOVWF  26
0172:  MOVF   24,W
0173:  MOVWF  27
0174:  CALL   107
0175:  MOVF   25,W
0176:  BSF    03.6
0177:  MOVWF  0D
0178:  BCF    03.6
0179:  MOVF   26,W
017A:  BSF    03.6
017B:  MOVWF  0F
017C:  INCF   0D,F
017D:  BTFSC  03.2
017E:  INCF   0F,F
017F:  BCF    03.6
0180:  GOTO   12E
0181:  BSF    03.6
0182:  BCF    03.6
0183:  BCF    0A.3
0184:  BCF    0A.4
0185:  GOTO   1ED (RETURN)
0186:  MOVF   27,W
0187:  CLRF   78
0188:  SUBWF  26,W
0189:  BTFSC  03.0
018A:  GOTO   18E
018B:  MOVF   26,W
018C:  MOVWF  77
018D:  GOTO   19A
018E:  CLRF   77
018F:  MOVLW  08
0190:  MOVWF  28
0191:  RLF    26,F
0192:  RLF    77,F
0193:  MOVF   27,W
0194:  SUBWF  77,W
0195:  BTFSC  03.0
0196:  MOVWF  77
0197:  RLF    78,F
0198:  DECFSZ 28,F
0199:  GOTO   191
019A:  RETURN
019B:  MOVF   78,W
019C:  MOVF   24,W
019D:  MOVWF  26
019E:  MOVLW  64
019F:  MOVWF  27
01A0:  CALL   186
01A1:  MOVF   77,W
01A2:  MOVWF  24
01A3:  MOVF   78,W
01A4:  MOVLW  30
01A5:  BTFSS  03.2
01A6:  GOTO   1AE
01A7:  BTFSS  25.1
01A8:  GOTO   1B5
01A9:  BTFSC  25.3
01AA:  GOTO   1B5
01AB:  BTFSC  25.4
01AC:  MOVLW  20
01AD:  GOTO   1B1
01AE:  BCF    25.3
01AF:  BCF    25.4
01B0:  BSF    25.0
01B1:  ADDWF  78,F
01B2:  MOVF   78,W
01B3:  MOVWF  27
01B4:  CALL   107
01B5:  MOVF   24,W
01B6:  MOVWF  26
01B7:  MOVLW  0A
01B8:  MOVWF  27
01B9:  CALL   186
01BA:  MOVF   77,W
01BB:  MOVWF  24
01BC:  MOVF   78,W
01BD:  MOVLW  30
01BE:  BTFSS  03.2
01BF:  GOTO   1C6
01C0:  BTFSC  25.3
01C1:  GOTO   1CA
01C2:  BTFSS  25.0
01C3:  GOTO   1CA
01C4:  BTFSC  25.4
01C5:  MOVLW  20
01C6:  ADDWF  78,F
01C7:  MOVF   78,W
01C8:  MOVWF  27
01C9:  CALL   107
01CA:  MOVLW  30
01CB:  ADDWF  24,F
01CC:  MOVF   24,W
01CD:  MOVWF  27
01CE:  CALL   107
01CF:  BCF    0A.3
01D0:  BCF    0A.4
01D1:  GOTO   1FA (RETURN)
....................  
.................... #list 
....................  
.................... #device ADC=10 
.................... #use delay(crystal=4MHz) 
*
0011:  MOVLW  28
0012:  MOVWF  04
0013:  BCF    03.7
0014:  MOVF   00,W
0015:  BTFSC  03.2
0016:  GOTO   025
0017:  MOVLW  01
0018:  MOVWF  78
0019:  CLRF   77
001A:  DECFSZ 77,F
001B:  GOTO   01A
001C:  DECFSZ 78,F
001D:  GOTO   019
001E:  MOVLW  4A
001F:  MOVWF  77
0020:  DECFSZ 77,F
0021:  GOTO   020
0022:  GOTO   023
0023:  DECFSZ 00,F
0024:  GOTO   017
0025:  RETURN
....................  
....................  
.................... #include "Flex_LCD420.c" 
.................... // Flex_LCD420.c  
....................  
.................... // These pins are for my Microchip PicDem2-Plus board,  
.................... // which I used to test this driver.  
.................... // An external 20x4 LCD is connected to these pins.  
.................... // Change these pins to match your own board's connections.  
....................  
.................... #define LCD_DB4   PIN_B4 
.................... #define LCD_DB5   PIN_B5  
.................... #define LCD_DB6   PIN_B6  
.................... #define LCD_DB7   PIN_B7  
....................  
.................... #define LCD_RS    PIN_B0  
.................... #define LCD_RW    PIN_B1  
.................... #define LCD_E     PIN_B2  
....................  
.................... /*  
.................... // To prove that the driver can be used with random  
.................... // pins, I also tested it with these pins:  
.................... #define LCD_DB4   PIN_D4  
.................... #define LCD_DB5   PIN_B1  
.................... #define LCD_DB6   PIN_C5  
.................... #define LCD_DB7   PIN_B5  
....................  
.................... #define LCD_RS    PIN_E2  
.................... #define LCD_RW    PIN_B2  
.................... #define LCD_E     PIN_D6  
.................... */  
....................  
.................... // If you want only a 6-pin interface to your LCD, then  
.................... // connect the R/W pin on the LCD to ground, and comment  
.................... // out the following line.  Doing so will save one PIC  
.................... // pin, but at the cost of losing the ability to read from  
.................... // the LCD.  It also makes the write time a little longer  
.................... // because a static delay must be used, instead of polling  
.................... // the LCD's busy bit.  Normally a 6-pin interface is only  
.................... // used if you are running out of PIC pins, and you need  
.................... // to use as few as possible for the LCD.  
.................... #define USE_RW_PIN   1       
....................  
....................  
.................... // These are the line addresses for most 4x20 LCDs.  
.................... #define LCD_LINE_1_ADDRESS 0x00  
.................... #define LCD_LINE_2_ADDRESS 0x40  
.................... #define LCD_LINE_3_ADDRESS 0x14  
.................... #define LCD_LINE_4_ADDRESS 0x54  
....................  
.................... // These are the line addresses for LCD's which use  
.................... // the Hitachi HD66712U controller chip.  
.................... /*  
.................... #define LCD_LINE_1_ADDRESS 0x00  
.................... #define LCD_LINE_2_ADDRESS 0x20  
.................... #define LCD_LINE_3_ADDRESS 0x40  
.................... #define LCD_LINE_4_ADDRESS 0x60  
.................... */  
....................  
....................  
.................... //========================================  
....................  
.................... #define lcd_type 2   // 0=5x7, 1=5x10, 2=2 lines(or more)  
....................  
.................... int8 lcd_line ; 
....................  
.................... int8 const LCD_INIT_STRING[4] =  
.................... {  
....................  0x20 | (lcd_type << 2),  // Set mode: 4-bit, 2+ lines, 5x8 dots  
....................  0xc,                     // Display on  
....................  1,                       // Clear display 
....................  6                        // Increment cursor  
....................  };  
....................                                
....................  
.................... //-------------------------------------  
.................... void lcd_send_nibble(int8 nibble)  
.................... {  
.................... // Note:  !! converts an integer expression  
.................... // to a boolean (1 or 0).  
....................  output_bit(LCD_DB4, !!(nibble & 1));  
0026:  BTFSC  2F.0
0027:  GOTO   02A
0028:  BCF    06.4
0029:  GOTO   02B
002A:  BSF    06.4
002B:  BSF    03.5
002C:  BCF    06.4
....................  output_bit(LCD_DB5, !!(nibble & 2));   
002D:  BCF    03.5
002E:  BTFSC  2F.1
002F:  GOTO   032
0030:  BCF    06.5
0031:  GOTO   033
0032:  BSF    06.5
0033:  BSF    03.5
0034:  BCF    06.5
....................  output_bit(LCD_DB6, !!(nibble & 4));     
0035:  BCF    03.5
0036:  BTFSC  2F.2
0037:  GOTO   03A
0038:  BCF    06.6
0039:  GOTO   03B
003A:  BSF    06.6
003B:  BSF    03.5
003C:  BCF    06.6
....................  output_bit(LCD_DB7, !!(nibble & 8));     
003D:  BCF    03.5
003E:  BTFSC  2F.3
003F:  GOTO   042
0040:  BCF    06.7
0041:  GOTO   043
0042:  BSF    06.7
0043:  BSF    03.5
0044:  BCF    06.7
....................  
....................  delay_cycles(1) ; 
0045:  NOP
....................  output_high(LCD_E);  
0046:  BCF    06.2
0047:  BCF    03.5
0048:  BSF    06.2
....................  delay_us(2);  
0049:  GOTO   04A
....................  output_low(LCD_E);  
004A:  BSF    03.5
004B:  BCF    06.2
004C:  BCF    03.5
004D:  BCF    06.2
004E:  RETURN
.................... }  
....................  
.................... //-----------------------------------  
.................... // This sub-routine is only called by lcd_read_byte().  
.................... // It's not a stand-alone routine.  For example, the  
.................... // R/W signal is set high by lcd_read_byte() before  
.................... // this routine is called.       
....................  
.................... #ifdef USE_RW_PIN  
.................... int8 lcd_read_nibble(void)  
.................... {  
.................... int8 retval;  
.................... // Create bit variables so that we can easily set  
.................... // individual bits in the retval variable.  
.................... #bit retval_0 = retval.0  
.................... #bit retval_1 = retval.1  
.................... #bit retval_2 = retval.2  
.................... #bit retval_3 = retval.3  
....................  
.................... retval = 0;  
004F:  CLRF   30
....................      
.................... output_high(LCD_E);  
0050:  BSF    03.5
0051:  BCF    06.2
0052:  BCF    03.5
0053:  BSF    06.2
.................... delay_us(1);  
0054:  NOP
....................  
.................... retval_0 = input(LCD_DB4);  
0055:  BSF    03.5
0056:  BSF    06.4
0057:  BCF    03.5
0058:  BCF    30.0
0059:  BTFSC  06.4
005A:  BSF    30.0
.................... retval_1 = input(LCD_DB5);  
005B:  BSF    03.5
005C:  BSF    06.5
005D:  BCF    03.5
005E:  BCF    30.1
005F:  BTFSC  06.5
0060:  BSF    30.1
.................... retval_2 = input(LCD_DB6);  
0061:  BSF    03.5
0062:  BSF    06.6
0063:  BCF    03.5
0064:  BCF    30.2
0065:  BTFSC  06.6
0066:  BSF    30.2
.................... retval_3 = input(LCD_DB7);  
0067:  BSF    03.5
0068:  BSF    06.7
0069:  BCF    03.5
006A:  BCF    30.3
006B:  BTFSC  06.7
006C:  BSF    30.3
....................    
.................... output_low(LCD_E);  
006D:  BSF    03.5
006E:  BCF    06.2
006F:  BCF    03.5
0070:  BCF    06.2
.................... delay_us(1);  
0071:  NOP
....................      
.................... return(retval);     
0072:  MOVF   30,W
0073:  MOVWF  78
0074:  RETURN
.................... }     
.................... #endif  
....................  
.................... //---------------------------------------  
.................... // Read a byte from the LCD and return it.  
....................  
.................... #ifdef USE_RW_PIN  
.................... int8 lcd_read_byte(void)  
.................... {  
.................... int8 low;  
.................... int8 high;  
....................  
.................... output_high(LCD_RW);  
*
0079:  BSF    03.5
007A:  BCF    06.1
007B:  BCF    03.5
007C:  BSF    06.1
.................... delay_cycles(1);  
007D:  NOP
....................  
.................... high = lcd_read_nibble();  
007E:  CALL   04F
007F:  MOVF   78,W
0080:  MOVWF  2F
....................  
.................... low = lcd_read_nibble();  
0081:  CALL   04F
0082:  MOVF   78,W
0083:  MOVWF  2E
....................  
.................... return( (high<<4) | low);  
0084:  SWAPF  2F,W
0085:  MOVWF  77
0086:  MOVLW  F0
0087:  ANDWF  77,F
0088:  MOVF   77,W
0089:  IORWF  2E,W
008A:  MOVWF  78
.................... }  
.................... #endif  
....................  
.................... //----------------------------------------  
.................... // Send a byte to the LCD.  
.................... void lcd_send_byte(int8 address, int8 n)  
.................... {  
.................... output_low(LCD_RS);  
*
0075:  BSF    03.5
0076:  BCF    06.0
0077:  BCF    03.5
0078:  BCF    06.0
....................  
.................... #ifdef USE_RW_PIN  
.................... while(bit_test(lcd_read_byte(),7)) ;  
*
008B:  MOVF   78,W
008C:  MOVWF  2E
008D:  BTFSC  2E.7
008E:  GOTO   079
.................... #else  
.................... delay_us(60);   
.................... #endif  
....................  
.................... if(address)  
008F:  MOVF   2C,F
0090:  BTFSC  03.2
0091:  GOTO   097
....................    output_high(LCD_RS);  
0092:  BSF    03.5
0093:  BCF    06.0
0094:  BCF    03.5
0095:  BSF    06.0
0096:  GOTO   09B
.................... else  
....................    output_low(LCD_RS);  
0097:  BSF    03.5
0098:  BCF    06.0
0099:  BCF    03.5
009A:  BCF    06.0
....................        
....................  delay_cycles(1);  
009B:  NOP
....................  
.................... #ifdef USE_RW_PIN  
.................... output_low(LCD_RW);  
009C:  BSF    03.5
009D:  BCF    06.1
009E:  BCF    03.5
009F:  BCF    06.1
.................... delay_cycles(1);  
00A0:  NOP
.................... #endif  
....................  
.................... output_low(LCD_E);  
00A1:  BSF    03.5
00A2:  BCF    06.2
00A3:  BCF    03.5
00A4:  BCF    06.2
....................  
.................... lcd_send_nibble(n >> 4);  
00A5:  SWAPF  2D,W
00A6:  MOVWF  2E
00A7:  MOVLW  0F
00A8:  ANDWF  2E,F
00A9:  MOVF   2E,W
00AA:  MOVWF  2F
00AB:  CALL   026
.................... lcd_send_nibble(n & 0xf);  
00AC:  MOVF   2D,W
00AD:  ANDLW  0F
00AE:  MOVWF  2E
00AF:  MOVWF  2F
00B0:  CALL   026
00B1:  RETURN
.................... }  
.................... //----------------------------  
....................  
.................... void lcd_init(void)  
.................... {  
....................    int8 i;  
....................  
....................    lcd_line = 1;  
00B2:  MOVLW  01
00B3:  MOVWF  20
....................  
....................    output_low(LCD_RS);  
00B4:  BSF    03.5
00B5:  BCF    06.0
00B6:  BCF    03.5
00B7:  BCF    06.0
....................  
....................    #ifdef USE_RW_PIN  
....................       output_low(LCD_RW);  
00B8:  BSF    03.5
00B9:  BCF    06.1
00BA:  BCF    03.5
00BB:  BCF    06.1
....................    #endif  
....................  
....................    output_low(LCD_E);  
00BC:  BSF    03.5
00BD:  BCF    06.2
00BE:  BCF    03.5
00BF:  BCF    06.2
....................  
....................    // Some LCDs require 15 ms minimum delay after  
....................    // power-up.  Others require 30 ms.  I'm going  
....................    // to set it to 35 ms, so it should work with  
....................    // all of them.  
....................    delay_ms(35);           
00C0:  MOVLW  23
00C1:  MOVWF  28
00C2:  CALL   011
....................  
....................    for(i=0 ;i < 3; i++)  
00C3:  CLRF   24
00C4:  MOVF   24,W
00C5:  SUBLW  02
00C6:  BTFSS  03.0
00C7:  GOTO   0D0
....................    {  
....................       lcd_send_nibble(0x03);  
00C8:  MOVLW  03
00C9:  MOVWF  2F
00CA:  CALL   026
....................       delay_ms(5);  
00CB:  MOVLW  05
00CC:  MOVWF  28
00CD:  CALL   011
00CE:  INCF   24,F
00CF:  GOTO   0C4
....................    }  
....................  
....................    lcd_send_nibble(0x02);  
00D0:  MOVLW  02
00D1:  MOVWF  2F
00D2:  CALL   026
....................  
....................    for(i=0; i < sizeof(LCD_INIT_STRING); i++)  
00D3:  CLRF   24
00D4:  MOVF   24,W
00D5:  SUBLW  03
00D6:  BTFSS  03.0
00D7:  GOTO   0E1
....................    {  
....................       lcd_send_byte(0, LCD_INIT_STRING[i]);  
00D8:  MOVF   24,W
00D9:  CALL   004
00DA:  MOVWF  25
00DB:  CLRF   2C
00DC:  MOVF   25,W
00DD:  MOVWF  2D
00DE:  CALL   075
....................      
....................       // If the R/W signal is not used, then  
....................       // the busy bit can't be polled.  One of  
....................       // the init commands takes longer than  
....................       // the hard-coded delay of 50 us, so in  
....................       // that case, lets just do a 5 ms delay  
....................       // after all four of them.  
....................       #ifndef USE_RW_PIN  
00DF:  INCF   24,F
00E0:  GOTO   0D4
....................          delay_ms(5);  
....................       #endif  
....................    }  
00E1:  RETURN
....................  
.................... }  
....................  
.................... //----------------------------  
....................  
.................... void lcd_gotoxy(int8 x, int8 y)  
.................... {  
.................... int8 address;  
....................  
....................  
.................... switch(y)  
00E2:  MOVF   29,W
00E3:  XORLW  01
00E4:  BTFSC  03.2
00E5:  GOTO   0F0
00E6:  XORLW  03
00E7:  BTFSC  03.2
00E8:  GOTO   0F2
00E9:  XORLW  01
00EA:  BTFSC  03.2
00EB:  GOTO   0F5
00EC:  XORLW  07
00ED:  BTFSC  03.2
00EE:  GOTO   0F8
00EF:  GOTO   0FB
....................   {  
....................    case 1:  
....................      address = LCD_LINE_1_ADDRESS;  
00F0:  CLRF   2A
....................      break;  
00F1:  GOTO   0FC
....................  
....................    case 2:  
....................      address = LCD_LINE_2_ADDRESS;  
00F2:  MOVLW  40
00F3:  MOVWF  2A
....................      break;  
00F4:  GOTO   0FC
....................  
....................    case 3:  
....................      address = LCD_LINE_3_ADDRESS;  
00F5:  MOVLW  14
00F6:  MOVWF  2A
....................      break;  
00F7:  GOTO   0FC
....................  
....................    case 4:  
....................      address = LCD_LINE_4_ADDRESS;  
00F8:  MOVLW  54
00F9:  MOVWF  2A
....................      break;  
00FA:  GOTO   0FC
....................  
....................    default:  
....................      address = LCD_LINE_1_ADDRESS;  
00FB:  CLRF   2A
....................      break;  
....................        
....................   }  
....................  
.................... address += x-1;  
00FC:  MOVLW  01
00FD:  SUBWF  28,W
00FE:  ADDWF  2A,F
.................... lcd_send_byte(0, 0x80 | address);  
00FF:  MOVF   2A,W
0100:  IORLW  80
0101:  MOVWF  2B
0102:  CLRF   2C
0103:  MOVF   2B,W
0104:  MOVWF  2D
0105:  CALL   075
0106:  RETURN
.................... }  
....................  
.................... //-----------------------------  
.................... void lcd_putc(char c)  
.................... {  
....................  switch(c)  
0107:  MOVF   27,W
0108:  XORLW  0C
0109:  BTFSC  03.2
010A:  GOTO   112
010B:  XORLW  06
010C:  BTFSC  03.2
010D:  GOTO   11C
010E:  XORLW  02
010F:  BTFSC  03.2
0110:  GOTO   123
0111:  GOTO   128
....................    {  
....................     case '\f':  
....................       lcd_send_byte(0,1);  
0112:  CLRF   2C
0113:  MOVLW  01
0114:  MOVWF  2D
0115:  CALL   075
....................       lcd_line = 1;  
0116:  MOVLW  01
0117:  MOVWF  20
....................       delay_ms(2);  
0118:  MOVLW  02
0119:  MOVWF  28
011A:  CALL   011
....................       break;  
011B:  GOTO   12D
....................      
....................     case '\n':  
....................        lcd_gotoxy(1, ++lcd_line);  
011C:  INCF   20,F
011D:  MOVLW  01
011E:  MOVWF  28
011F:  MOVF   20,W
0120:  MOVWF  29
0121:  CALL   0E2
....................        break;  
0122:  GOTO   12D
....................      
....................     case '\b':  
....................        lcd_send_byte(0,0x10);  
0123:  CLRF   2C
0124:  MOVLW  10
0125:  MOVWF  2D
0126:  CALL   075
....................        break;  
0127:  GOTO   12D
....................      
....................     default:  
....................        lcd_send_byte(1,c);  
0128:  MOVLW  01
0129:  MOVWF  2C
012A:  MOVF   27,W
012B:  MOVWF  2D
012C:  CALL   075
....................        break;  
....................    }  
012D:  RETURN
.................... }  
....................  
.................... //------------------------------  
.................... #ifdef USE_RW_PIN  
.................... char lcd_getc(int8 x, int8 y)  
.................... {  
.................... char value;  
....................  
.................... lcd_gotoxy(x,y);  
....................  
.................... // Wait until busy flag is low.  
.................... while(bit_test(lcd_read_byte(),7));   
....................  
.................... output_high(LCD_RS);  
.................... value = lcd_read_byte();  
.................... output_low(LCD_RS);  
....................  
.................... return(value);  
.................... }  
.................... #endif  
....................  
....................  
.................... void main() 
*
01D2:  MOVF   03,W
01D3:  ANDLW  1F
01D4:  MOVWF  03
01D5:  CLRF   22
01D6:  CLRF   21
01D7:  BSF    03.5
01D8:  BSF    1F.0
01D9:  BSF    1F.1
01DA:  BSF    1F.2
01DB:  BCF    1F.3
01DC:  MOVLW  07
01DD:  MOVWF  1C
01DE:  BCF    03.7
.................... { 
....................  
....................    lcd_init(); //initialize our lcd 
01DF:  BCF    03.5
01E0:  CALL   0B2
....................    int i =0; 
01E1:  CLRF   23
....................     
....................    while(TRUE) 
....................    { 
....................  
....................       lcd_gotoxy(1,1); // take cursor to the determined x,y 
01E2:  MOVLW  01
01E3:  MOVWF  28
01E4:  MOVWF  29
01E5:  CALL   0E2
....................       lcd_putc("Hello !!"); // write your string into specified x,y 
01E6:  MOVLW  0C
01E7:  BSF    03.6
01E8:  MOVWF  0D
01E9:  MOVLW  00
01EA:  MOVWF  0F
01EB:  BCF    03.6
01EC:  GOTO   12E
....................       delay_ms(5); 
01ED:  MOVLW  05
01EE:  MOVWF  28
01EF:  CALL   011
....................       lcd_gotoxy(1,2); 
01F0:  MOVLW  01
01F1:  MOVWF  28
01F2:  MOVLW  02
01F3:  MOVWF  29
01F4:  CALL   0E2
....................       printf(LCD_PUTC,"%U",i); //convert int to string and print it into lcd with %U for further info go to page 136 of refer 
01F5:  MOVF   23,W
01F6:  MOVWF  24
01F7:  MOVLW  1B
01F8:  MOVWF  25
01F9:  GOTO   19B
....................       i++; 
01FA:  INCF   23,F
....................       if(i == 255 ) 
01FB:  INCFSZ 23,W
01FC:  GOTO   1FF
....................       { 
....................          lcd_init(); 
01FD:  CALL   0B2
....................          i=0; 
01FE:  CLRF   23
....................       } 
01FF:  GOTO   1E2
....................   
....................    } 
....................  
.................... } 
0200:  SLEEP

Configuration Fuses:
   Word  1: 2F41   XT NOWDT PUT BROWNOUT NOLVP NOCPD NOWRT NODEBUG NOPROTECT
